; Function Attrs: mustprogress nofree norecurse nosync nounwind willreturn memory(read, argmem: readwrite, inaccessiblemem: none) uwtable
define internal noundef i32 @ctrl_set_decode_tile_row(ptr nocapture noundef writeonly %0, ptr nocapture noundef %1) #6 {
  %3 = load i32, ptr %1, align 8
  %4 = icmp ult i32 %3, 41
  br i1 %4, label %5, label %11

5:                                                ; preds = %2
  %6 = getelementptr inbounds nuw i8, ptr %1, i64 16
  %7 = load ptr, ptr %6, align 8
  %8 = zext nneg i32 %3 to i64
  %9 = getelementptr i8, ptr %7, i64 %8
  %10 = add nuw nsw i32 %3, 8
  store i32 %10, ptr %1, align 8
  br label %15

11:                                               ; preds = %2
  %12 = getelementptr inbounds nuw i8, ptr %1, i64 8
  %13 = load ptr, ptr %12, align 8
  %14 = getelementptr i8, ptr %13, i64 8
  store ptr %14, ptr %12, align 8
  br label %15

15:                                               ; preds = %11, %5
  %16 = phi ptr [ %9, %5 ], [ %13, %11 ]
  %17 = load i32, ptr %16, align 4
  %18 = getelementptr inbounds nuw i8, ptr %0, i64 452
  store i32 %17, ptr %18, align 4
  ret i32 0
}